; Function Attrs: mustprogress uwtable
define hidden void @_ZN17opencv_tensorflow8GraphDef5ClearEv(ptr noundef nonnull align 8 dereferenceable(64) %0) unnamed_addr #3 align 2 personality ptr @__gxx_personality_v0 {
  %2 = getelementptr inbounds nuw i8, ptr %0, i64 24
  %3 = load i32, ptr %2, align 8, !tbaa !31
  %4 = icmp sgt i32 %3, 0
  br i1 %4, label %5, label %_ZN6google8protobuf16RepeatedPtrFieldIN17opencv_tensorflow7NodeDefEE5ClearEv.exit

5:                                                ; preds = %1
  %6 = getelementptr inbounds nuw i8, ptr %0, i64 32
  %7 = load ptr, ptr %6, align 8, !tbaa !30
  %8 = getelementptr inbounds nuw i8, ptr %7, i64 8
  %wide.trip.count.i.i = zext nneg i32 %3 to i64
  br label %9

9:                                                ; preds = %9, %5
  %indvars.iv.i.i = phi i64 [ %indvars.iv.next.i.i, %9 ], [ 0, %5 ]
  %indvars.iv.next.i.i = add nuw nsw i64 %indvars.iv.i.i, 1
  %10 = getelementptr inbounds nuw ptr, ptr %8, i64 %indvars.iv.i.i
  %11 = load ptr, ptr %10, align 8, !tbaa !36
  tail call void @_ZN17opencv_tensorflow7NodeDef5ClearEv(ptr noundef nonnull align 8 dereferenceable(192) %11)
  %exitcond.not.i.i = icmp eq i64 %indvars.iv.next.i.i, %wide.trip.count.i.i
  br i1 %exitcond.not.i.i, label %12, label %9, !llvm.loop !37

12:                                               ; preds = %9
  store i32 0, ptr %2, align 8, !tbaa !31
  br label %_ZN6google8protobuf16RepeatedPtrFieldIN17opencv_tensorflow7NodeDefEE5ClearEv.exit

_ZN6google8protobuf16RepeatedPtrFieldIN17opencv_tensorflow7NodeDefEE5ClearEv.exit: ; preds = %1, %12
  %13 = getelementptr inbounds nuw i8, ptr %0, i64 8
  %14 = load i64, ptr %13, align 8, !tbaa !23
  %15 = and i64 %14, 1
  %.not.i = icmp eq i64 %15, 0
  %16 = and i64 %14, -4
  %17 = inttoptr i64 %16 to ptr
  br i1 %.not.i, label %_ZNK6google8protobuf11MessageLite21GetArenaForAllocationEv.exit, label %18, !prof !24

18:                                               ; preds = %_ZN6google8protobuf16RepeatedPtrFieldIN17opencv_tensorflow7NodeDefEE5ClearEv.exit
  %19 = load ptr, ptr %17, align 8, !tbaa !25
  br label %_ZNK6google8protobuf11MessageLite21GetArenaForAllocationEv.exit

_ZNK6google8protobuf11MessageLite21GetArenaForAllocationEv.exit: ; preds = %_ZN6google8protobuf16RepeatedPtrFieldIN17opencv_tensorflow7NodeDefEE5ClearEv.exit, %18
  %.0.i.i = phi ptr [ %19, %18 ], [ %17, %_ZN6google8protobuf16RepeatedPtrFieldIN17opencv_tensorflow7NodeDefEE5ClearEv.exit ]
  %20 = icmp eq ptr %.0.i.i, null
  br i1 %20, label %21, label %25

21:                                               ; preds = %_ZNK6google8protobuf11MessageLite21GetArenaForAllocationEv.exit
  %22 = getelementptr inbounds nuw i8, ptr %0, i64 40
  %23 = load ptr, ptr %22, align 8, !tbaa !22
  %.not = icmp eq ptr %23, null
  br i1 %.not, label %25, label %24

24:                                               ; preds = %21
  tail call void @_ZN17opencv_tensorflow18FunctionDefLibraryD1Ev(ptr noundef nonnull align 8 dereferenceable(72) %23) #29
  tail call void @_ZdlPv(ptr noundef nonnull %23) #30
  %.pre = load i64, ptr %13, align 8, !tbaa !23
  %.pre8 = and i64 %.pre, 1
  %.pre9 = and i64 %.pre, -4
  %.pre11 = inttoptr i64 %.pre9 to ptr
  br label %25

25:                                               ; preds = %24, %21, %_ZNK6google8protobuf11MessageLite21GetArenaForAllocationEv.exit
  %.pre-phi12 = phi ptr [ %.pre11, %24 ], [ %17, %21 ], [ %17, %_ZNK6google8protobuf11MessageLite21GetArenaForAllocationEv.exit ]
  %.pre-phi = phi i64 [ %.pre8, %24 ], [ %15, %21 ], [ %15, %_ZNK6google8protobuf11MessageLite21GetArenaForAllocationEv.exit ]
  %26 = getelementptr inbounds nuw i8, ptr %0, i64 40
  store ptr null, ptr %26, align 8, !tbaa !22
  %.not.i3 = icmp eq i64 %.pre-phi, 0
  br i1 %.not.i3, label %_ZNK6google8protobuf11MessageLite21GetArenaForAllocationEv.exit5, label %27, !prof !24

27:                                               ; preds = %25
  %28 = load ptr, ptr %.pre-phi12, align 8, !tbaa !25
  br label %_ZNK6google8protobuf11MessageLite21GetArenaForAllocationEv.exit5

_ZNK6google8protobuf11MessageLite21GetArenaForAllocationEv.exit5: ; preds = %25, %27
  %.0.i.i4 = phi ptr [ %28, %27 ], [ %.pre-phi12, %25 ]
  %29 = icmp eq ptr %.0.i.i4, null
  br i1 %29, label %30, label %34

30:                                               ; preds = %_ZNK6google8protobuf11MessageLite21GetArenaForAllocationEv.exit5
  %31 = getelementptr inbounds nuw i8, ptr %0, i64 48
  %32 = load ptr, ptr %31, align 8, !tbaa !3
  %.not2 = icmp eq ptr %32, null
  br i1 %.not2, label %34, label %33

33:                                               ; preds = %30
  tail call void @_ZN17opencv_tensorflow10VersionDefD1Ev(ptr noundef nonnull align 8 dereferenceable(48) %32) #29
  tail call void @_ZdlPv(ptr noundef nonnull %32) #30
  %.pre7 = load i64, ptr %13, align 8, !tbaa !23
  %.pre13 = and i64 %.pre7, 1
  br label %34

34:                                               ; preds = %33, %30, %_ZNK6google8protobuf11MessageLite21GetArenaForAllocationEv.exit5
  %.pre-phi14 = phi i64 [ %.pre13, %33 ], [ %.pre-phi, %30 ], [ %.pre-phi, %_ZNK6google8protobuf11MessageLite21GetArenaForAllocationEv.exit5 ]
  %35 = getelementptr inbounds nuw i8, ptr %0, i64 48
  store ptr null, ptr %35, align 8, !tbaa !3
  %36 = getelementptr inbounds nuw i8, ptr %0, i64 56
  store i32 0, ptr %36, align 8, !tbaa !35
  %.not6 = icmp eq i64 %.pre-phi14, 0
  br i1 %.not6, label %_ZN6google8protobuf8internal16InternalMetadata5ClearINS0_15UnknownFieldSetEEEvv.exit, label %37

37:                                               ; preds = %34
  tail call void @_ZN6google8protobuf8internal16InternalMetadata7DoClearINS0_15UnknownFieldSetEEEvv(ptr noundef nonnull align 8 dereferenceable(8) %13)
  br label %_ZN6google8protobuf8internal16InternalMetadata5ClearINS0_15UnknownFieldSetEEEvv.exit

_ZN6google8protobuf8internal16InternalMetadata5ClearINS0_15UnknownFieldSetEEEvv.exit: ; preds = %34, %37
  ret void
}